target datalayout = "e-m:e-p270:32:32-p271:32:32-p272:64:64-i64:64-i128:128-f80:128-n8:16:32:64-S128"
target triple = "x86_64-pc-linux-gnu"

%"class.std::__shared_count" = type { ptr }
%"struct.Luau::ErrorSuppression" = type { i32 }
%"struct.Luau::NotNull.131" = type { ptr }
%"class.std::shared_ptr.132" = type { %"class.std::__shared_ptr.133" }
%"class.std::__shared_ptr.133" = type { ptr, %"class.std::__shared_count" }

; Function Attrs: mustprogress nounwind uwtable
define linkonce_odr dso_local noundef ptr @_ZNKSt12__shared_ptrIKN4Luau14NormalizedTypeELN9__gnu_cxx12_Lock_policyE2EE3getEv(ptr noundef nonnull align 8 dereferenceable(16) %0) #2 comdat align 2 {
  %2 = alloca ptr, align 8
  store ptr %0, ptr %2, align 8, !tbaa !209
  %3 = load ptr, ptr %2, align 8
  %4 = getelementptr inbounds nuw %"class.std::__shared_ptr.133", ptr %3, i32 0, i32 0
  %5 = load ptr, ptr %4, align 8, !tbaa !211
  ret ptr %5
}

; Function Attrs: mustprogress nounwind uwtable
define linkonce_odr dso_local noundef ptr @_ZNKSt19__shared_ptr_accessIKN4Luau14NormalizedTypeELN9__gnu_cxx12_Lock_policyE2ELb0ELb0EE6_M_getEv(ptr noundef nonnull align 1 dereferenceable(1) %0) #2 comdat align 2 {
  %2 = alloca ptr, align 8
  store ptr %0, ptr %2, align 8, !tbaa !220
  %3 = load ptr, ptr %2, align 8
  %4 = call noundef ptr @_ZNKSt12__shared_ptrIKN4Luau14NormalizedTypeELN9__gnu_cxx12_Lock_policyE2EE3getEv(ptr noundef nonnull align 8 dereferenceable(16) %3) #19
  ret ptr %4
}

; Function Attrs: mustprogress nounwind uwtable
define linkonce_odr dso_local noundef ptr @_ZNKSt19__shared_ptr_accessIKN4Luau14NormalizedTypeELN9__gnu_cxx12_Lock_policyE2ELb0ELb0EEptEv(ptr noundef nonnull align 1 dereferenceable(1) %0) #2 comdat align 2 {
  %2 = alloca ptr, align 8
  store ptr %0, ptr %2, align 8, !tbaa !220
  %3 = load ptr, ptr %2, align 8
  %4 = call noundef ptr @_ZNKSt19__shared_ptr_accessIKN4Luau14NormalizedTypeELN9__gnu_cxx12_Lock_policyE2ELb0ELb0EE6_M_getEv(ptr noundef nonnull align 1 dereferenceable(1) %3) #19
  ret ptr %4
}

; Function Attrs: mustprogress nounwind uwtable
define linkonce_odr dso_local void @_ZN4Luau16ErrorSuppressionC2ENS0_5ValueE(ptr noundef nonnull align 4 dereferenceable(4) %0, i32 noundef %1) unnamed_addr #2 comdat align 2 {
  %3 = alloca ptr, align 8
  %4 = alloca i32, align 4
  store ptr %0, ptr %3, align 8, !tbaa !214
  store i32 %1, ptr %4, align 4, !tbaa !216
  %5 = load ptr, ptr %3, align 8
  %6 = getelementptr inbounds nuw %"struct.Luau::ErrorSuppression", ptr %5, i32 0, i32 0
  %7 = load i32, ptr %4, align 4, !tbaa !216
  store i32 %7, ptr %6, align 4, !tbaa !218
  ret void
}

; Function Attrs: mustprogress nounwind uwtable
define linkonce_odr dso_local noundef zeroext i1 @_ZNKSt12__shared_ptrIKN4Luau14NormalizedTypeELN9__gnu_cxx12_Lock_policyE2EEcvbEv(ptr noundef nonnull align 8 dereferenceable(16) %0) #2 comdat align 2 {
  %2 = alloca ptr, align 8
  store ptr %0, ptr %2, align 8, !tbaa !209
  %3 = load ptr, ptr %2, align 8
  %4 = getelementptr inbounds nuw %"class.std::__shared_ptr.133", ptr %3, i32 0, i32 0
  %5 = load ptr, ptr %4, align 8, !tbaa !211
  %6 = icmp ne ptr %5, null
  ret i1 %6
}

; Function Attrs: mustprogress nounwind uwtable
define linkonce_odr dso_local noundef ptr @_ZNK4Luau7NotNullINS_10NormalizerEEptEv(ptr noundef nonnull align 8 dereferenceable(8) %0) #2 comdat align 2 {
  %2 = alloca ptr, align 8
  store ptr %0, ptr %2, align 8, !tbaa !204
  %3 = load ptr, ptr %2, align 8
  %4 = getelementptr inbounds nuw %"struct.Luau::NotNull.131", ptr %3, i32 0, i32 0
  %5 = load ptr, ptr %4, align 8, !tbaa !206
  ret ptr %5
}

; Function Attrs: mustprogress uwtable
define dso_local i32 @_ZN4Luau20shouldSuppressErrorsENS_7NotNullINS_10NormalizerEEEPKNS_4TypeE(ptr %0, ptr noundef %1) #3 personality ptr @__gxx_personality_v0 {
  %3 = alloca %"struct.Luau::ErrorSuppression", align 4
  %4 = alloca %"struct.Luau::NotNull.131", align 8
  %5 = alloca ptr, align 8
  %6 = alloca %"class.std::shared_ptr.132", align 8
  %7 = alloca ptr, align 8
  %8 = alloca i32, align 4
  %9 = alloca i32, align 4
  %10 = getelementptr inbounds nuw %"struct.Luau::NotNull.131", ptr %4, i32 0, i32 0
  store ptr %0, ptr %10, align 8
  store ptr %1, ptr %5, align 8, !tbaa !12
  call void @llvm.lifetime.start.p0(i64 16, ptr %6) #19
  %11 = call noundef ptr @_ZNK4Luau7NotNullINS_10NormalizerEEptEv(ptr noundef nonnull align 8 dereferenceable(8) %4) #19
  %12 = load ptr, ptr %5, align 8, !tbaa !12
  call void @_ZN4Luau10Normalizer9normalizeEPKNS_4TypeE(ptr dead_on_unwind writable sret(%"class.std::shared_ptr.132") align 8 %6, ptr noundef nonnull align 8 dereferenceable(337) %11, ptr noundef %12)
  %13 = call noundef zeroext i1 @_ZNKSt12__shared_ptrIKN4Luau14NormalizedTypeELN9__gnu_cxx12_Lock_policyE2EEcvbEv(ptr noundef nonnull align 8 dereferenceable(16) %6) #19
  br i1 %13, label %20, label %14

14:                                               ; preds = %2
  invoke void @_ZN4Luau16ErrorSuppressionC2ENS0_5ValueE(ptr noundef nonnull align 4 dereferenceable(4) %3, i32 noundef 2)
          to label %15 unwind label %16

15:                                               ; preds = %14
  store i32 1, ptr %9, align 4
  br label %26

16:                                               ; preds = %23, %20, %14
  %17 = landingpad { ptr, i32 }
          cleanup
  %18 = extractvalue { ptr, i32 } %17, 0
  store ptr %18, ptr %7, align 8
  %19 = extractvalue { ptr, i32 } %17, 1
  store i32 %19, ptr %8, align 4
  call void @_ZNSt12__shared_ptrIKN4Luau14NormalizedTypeELN9__gnu_cxx12_Lock_policyE2EED2Ev(ptr noundef nonnull align 8 dereferenceable(16) %6) #19
  call void @llvm.lifetime.end.p0(i64 16, ptr %6) #19
  br label %29

20:                                               ; preds = %2
  %21 = call noundef ptr @_ZNKSt19__shared_ptr_accessIKN4Luau14NormalizedTypeELN9__gnu_cxx12_Lock_policyE2ELb0ELb0EEptEv(ptr noundef nonnull align 1 dereferenceable(1) %6) #19
  %22 = invoke noundef zeroext i1 @_ZNK4Luau14NormalizedType20shouldSuppressErrorsEv(ptr noundef nonnull align 8 dereferenceable(401) %21)
          to label %23 unwind label %16

23:                                               ; preds = %20
  %24 = select i1 %22, i32 0, i32 1
  invoke void @_ZN4Luau16ErrorSuppressionC2ENS0_5ValueE(ptr noundef nonnull align 4 dereferenceable(4) %3, i32 noundef %24)
          to label %25 unwind label %16

25:                                               ; preds = %23
  store i32 1, ptr %9, align 4
  br label %26

26:                                               ; preds = %25, %15
  call void @_ZNSt12__shared_ptrIKN4Luau14NormalizedTypeELN9__gnu_cxx12_Lock_policyE2EED2Ev(ptr noundef nonnull align 8 dereferenceable(16) %6) #19
  call void @llvm.lifetime.end.p0(i64 16, ptr %6) #19
  %27 = getelementptr inbounds nuw %"struct.Luau::ErrorSuppression", ptr %3, i32 0, i32 0
  %28 = load i32, ptr %27, align 4
  ret i32 %28

29:                                               ; preds = %16
  %30 = load ptr, ptr %7, align 8
  %31 = load i32, ptr %8, align 4
  %32 = insertvalue { ptr, i32 } poison, ptr %30, 0
  %33 = insertvalue { ptr, i32 } %32, i32 %31, 1
  resume { ptr, i32 } %33
}