; Function Attrs: mustprogress uwtable
define dso_local range(i32 0, 3) i32 @_ZN4Luau20shouldSuppressErrorsENS_7NotNullINS_10NormalizerEEEPKNS_4TypeE(ptr nonnull %0, ptr noundef %1) local_unnamed_addr #3 personality ptr @__gxx_personality_v0 {
  %3 = alloca %"class.std::shared_ptr.132", align 8
  call void @llvm.lifetime.start.p0(i64 16, ptr nonnull %3) #26
  call void @_ZN4Luau10Normalizer9normalizeEPKNS_4TypeE(ptr dead_on_unwind nonnull writable sret(%"class.std::shared_ptr.132") align 8 %3, ptr noundef nonnull align 8 dereferenceable(337) %0, ptr noundef %1)
  %4 = load ptr, ptr %3, align 8, !tbaa !254
  %.not = icmp eq ptr %4, null
  br i1 %.not, label %11, label %7

5:                                                ; preds = %7
  %6 = landingpad { ptr, i32 }
          cleanup
  call void @_ZNSt12__shared_ptrIKN4Luau14NormalizedTypeELN9__gnu_cxx12_Lock_policyE2EED2Ev(ptr noundef nonnull align 8 dereferenceable(16) %3) #26
  call void @llvm.lifetime.end.p0(i64 16, ptr nonnull %3) #26
  resume { ptr, i32 } %6

7:                                                ; preds = %2
  %8 = invoke noundef zeroext i1 @_ZNK4Luau14NormalizedType20shouldSuppressErrorsEv(ptr noundef nonnull align 8 dereferenceable(401) %4)
          to label %9 unwind label %5

9:                                                ; preds = %7
  %not. = xor i1 %8, true
  %10 = zext i1 %not. to i32
  br label %11

11:                                               ; preds = %2, %9
  %.sroa.02.0 = phi i32 [ %10, %9 ], [ 2, %2 ]
  %12 = getelementptr inbounds nuw i8, ptr %3, i64 8
  %13 = load ptr, ptr %12, align 8, !tbaa !194
  %.not.i.i = icmp eq ptr %13, null
  br i1 %.not.i.i, label %_ZNSt12__shared_ptrIKN4Luau14NormalizedTypeELN9__gnu_cxx12_Lock_policyE2EED2Ev.exit, label %14

14:                                               ; preds = %11
  %15 = getelementptr inbounds nuw i8, ptr %13, i64 8
  %16 = load atomic i64, ptr %15 acquire, align 8
  %17 = icmp eq i64 %16, 4294967297
  %18 = trunc i64 %16 to i32
  br i1 %17, label %19, label %27

19:                                               ; preds = %14
  store i32 0, ptr %15, align 8, !tbaa !195
  %20 = getelementptr inbounds nuw i8, ptr %13, i64 12
  store i32 0, ptr %20, align 4, !tbaa !197
  %21 = load ptr, ptr %13, align 8, !tbaa !198
  %22 = getelementptr inbounds nuw i8, ptr %21, i64 16
  %23 = load ptr, ptr %22, align 8
  call void %23(ptr noundef nonnull align 8 dereferenceable(16) %13) #26
  %24 = load ptr, ptr %13, align 8, !tbaa !198
  %25 = getelementptr inbounds nuw i8, ptr %24, i64 24
  %26 = load ptr, ptr %25, align 8
  call void %26(ptr noundef nonnull align 8 dereferenceable(16) %13) #26
  br label %_ZNSt12__shared_ptrIKN4Luau14NormalizedTypeELN9__gnu_cxx12_Lock_policyE2EED2Ev.exit

27:                                               ; preds = %14
  %28 = load i8, ptr @__libc_single_threaded, align 1, !tbaa !115
  %.not.i.i.i = icmp eq i8 %28, 0
  br i1 %.not.i.i.i, label %31, label %29

29:                                               ; preds = %27
  %30 = add nsw i32 %18, -1
  store i32 %30, ptr %15, align 4, !tbaa !4
  br label %_ZN9__gnu_cxx27__exchange_and_add_dispatchEPii.exit.i.i.i

31:                                               ; preds = %27
  %32 = atomicrmw volatile add ptr %15, i32 -1 acq_rel, align 4
  br label %_ZN9__gnu_cxx27__exchange_and_add_dispatchEPii.exit.i.i.i

_ZN9__gnu_cxx27__exchange_and_add_dispatchEPii.exit.i.i.i: ; preds = %31, %29
  %.0.i.i.i.i = phi i32 [ %18, %29 ], [ %32, %31 ]
  %33 = icmp eq i32 %.0.i.i.i.i, 1
  br i1 %33, label %34, label %_ZNSt12__shared_ptrIKN4Luau14NormalizedTypeELN9__gnu_cxx12_Lock_policyE2EED2Ev.exit, !prof !17

34:                                               ; preds = %_ZN9__gnu_cxx27__exchange_and_add_dispatchEPii.exit.i.i.i
  call void @_ZNSt16_Sp_counted_baseILN9__gnu_cxx12_Lock_policyE2EE24_M_release_last_use_coldEv(ptr noundef nonnull align 8 dereferenceable(16) %13) #26
  br label %_ZNSt12__shared_ptrIKN4Luau14NormalizedTypeELN9__gnu_cxx12_Lock_policyE2EED2Ev.exit

_ZNSt12__shared_ptrIKN4Luau14NormalizedTypeELN9__gnu_cxx12_Lock_policyE2EED2Ev.exit: ; preds = %11, %19, %_ZN9__gnu_cxx27__exchange_and_add_dispatchEPii.exit.i.i.i, %34
  call void @llvm.lifetime.end.p0(i64 16, ptr nonnull %3) #26
  ret i32 %.sroa.02.0
}